target datalayout = "e-m:e-p270:32:32-p271:32:32-p272:64:64-i64:64-i128:128-f80:128-n8:16:32:64-S128"
target triple = "x86_64-pc-linux-gnu"

%struct.JNINativeInterface_ = type { ptr, ptr, ptr, ptr, ptr, ptr, ptr, ptr, ptr, ptr, ptr, ptr, ptr, ptr, ptr, ptr, ptr, ptr, ptr, ptr, ptr, ptr, ptr, ptr, ptr, ptr, ptr, ptr, ptr, ptr, ptr, ptr, ptr, ptr, ptr, ptr, ptr, ptr, ptr, ptr, ptr, ptr, ptr, ptr, ptr, ptr, ptr, ptr, ptr, ptr, ptr, ptr, ptr, ptr, ptr, ptr, ptr, ptr, ptr, ptr, ptr, ptr, ptr, ptr, ptr, ptr, ptr, ptr, ptr, ptr, ptr, ptr, ptr, ptr, ptr, ptr, ptr, ptr, ptr, ptr, ptr, ptr, ptr, ptr, ptr, ptr, ptr, ptr, ptr, ptr, ptr, ptr, ptr, ptr, ptr, ptr, ptr, ptr, ptr, ptr, ptr, ptr, ptr, ptr, ptr, ptr, ptr, ptr, ptr, ptr, ptr, ptr, ptr, ptr, ptr, ptr, ptr, ptr, ptr, ptr, ptr, ptr, ptr, ptr, ptr, ptr, ptr, ptr, ptr, ptr, ptr, ptr, ptr, ptr, ptr, ptr, ptr, ptr, ptr, ptr, ptr, ptr, ptr, ptr, ptr, ptr, ptr, ptr, ptr, ptr, ptr, ptr, ptr, ptr, ptr, ptr, ptr, ptr, ptr, ptr, ptr, ptr, ptr, ptr, ptr, ptr, ptr, ptr, ptr, ptr, ptr, ptr, ptr, ptr, ptr, ptr, ptr, ptr, ptr, ptr, ptr, ptr, ptr, ptr, ptr, ptr, ptr, ptr, ptr, ptr, ptr, ptr, ptr, ptr, ptr, ptr, ptr, ptr, ptr, ptr, ptr, ptr, ptr, ptr, ptr, ptr, ptr, ptr, ptr, ptr, ptr, ptr, ptr, ptr, ptr, ptr, ptr, ptr, ptr, ptr, ptr, ptr, ptr, ptr, ptr, ptr, ptr, ptr, ptr, ptr, ptr, ptr, ptr, ptr, ptr }
%struct.CK_FUNCTION_LIST = type { %struct.CK_VERSION, ptr, ptr, ptr, ptr, ptr, ptr, ptr, ptr, ptr, ptr, ptr, ptr, ptr, ptr, ptr, ptr, ptr, ptr, ptr, ptr, ptr, ptr, ptr, ptr, ptr, ptr, ptr, ptr, ptr, ptr, ptr, ptr, ptr, ptr, ptr, ptr, ptr, ptr, ptr, ptr, ptr, ptr, ptr, ptr, ptr, ptr, ptr, ptr, ptr, ptr, ptr, ptr, ptr, ptr, ptr, ptr, ptr, ptr, ptr, ptr, ptr, ptr, ptr, ptr, ptr, ptr, ptr, ptr }
%struct.CK_VERSION = type { i8, i8 }

; Function Attrs: nounwind uwtable
define i32 @Java_sun_security_pkcs11_wrapper_PKCS11_C_1Encrypt(ptr noundef %0, ptr noundef %1, i64 noundef %2, i64 noundef %3, ptr noundef %4, i32 noundef %5, i32 noundef %6, i64 noundef %7, ptr noundef %8, i32 noundef %9, i32 noundef %10) #0 {
  %12 = alloca i32, align 4
  %13 = alloca ptr, align 8
  %14 = alloca ptr, align 8
  %15 = alloca i64, align 8
  %16 = alloca i64, align 8
  %17 = alloca ptr, align 8
  %18 = alloca i32, align 4
  %19 = alloca i32, align 4
  %20 = alloca i64, align 8
  %21 = alloca ptr, align 8
  %22 = alloca i32, align 4
  %23 = alloca i32, align 4
  %24 = alloca i64, align 8
  %25 = alloca i64, align 8
  %26 = alloca ptr, align 8
  %27 = alloca ptr, align 8
  %28 = alloca i64, align 8
  %29 = alloca ptr, align 8
  store ptr %0, ptr %13, align 8
  store ptr %1, ptr %14, align 8
  store i64 %2, ptr %15, align 8
  store i64 %3, ptr %16, align 8
  store ptr %4, ptr %17, align 8
  store i32 %5, ptr %18, align 4
  store i32 %6, ptr %19, align 4
  store i64 %7, ptr %20, align 8
  store ptr %8, ptr %21, align 8
  store i32 %9, ptr %22, align 4
  store i32 %10, ptr %23, align 4
  store i64 0, ptr %28, align 8
  %30 = load ptr, ptr %13, align 8
  %31 = load ptr, ptr %14, align 8
  %32 = call ptr @getFunctionList(ptr noundef %30, ptr noundef %31)
  store ptr %32, ptr %29, align 8
  %33 = load ptr, ptr %29, align 8
  %34 = icmp eq ptr %33, null
  br i1 %34, label %35, label %36

35:                                               ; preds = %11
  store i32 0, ptr %12, align 4
  br label %129

36:                                               ; preds = %11
  %37 = load i64, ptr %15, align 8
  store i64 %37, ptr %24, align 8
  %38 = load i64, ptr %16, align 8
  %39 = icmp ne i64 %38, 0
  br i1 %39, label %40, label %43

40:                                               ; preds = %36
  %41 = load i64, ptr %16, align 8
  %42 = inttoptr i64 %41 to ptr
  store ptr %42, ptr %26, align 8
  br label %55

43:                                               ; preds = %36
  %44 = load ptr, ptr %13, align 8
  %45 = load ptr, ptr %44, align 8
  %46 = getelementptr inbounds %struct.JNINativeInterface_, ptr %45, i32 0, i32 222
  %47 = load ptr, ptr %46, align 8
  %48 = load ptr, ptr %13, align 8
  %49 = load ptr, ptr %17, align 8
  %50 = call ptr %47(ptr noundef %48, ptr noundef %49, ptr noundef null)
  store ptr %50, ptr %26, align 8
  %51 = load ptr, ptr %26, align 8
  %52 = icmp eq ptr %51, null
  br i1 %52, label %53, label %54

53:                                               ; preds = %43
  store i32 0, ptr %12, align 4
  br label %129

54:                                               ; preds = %43
  br label %55

55:                                               ; preds = %54, %40
  %56 = load i64, ptr %20, align 8
  %57 = icmp ne i64 %56, 0
  br i1 %57, label %58, label %61

58:                                               ; preds = %55
  %59 = load i64, ptr %20, align 8
  %60 = inttoptr i64 %59 to ptr
  store ptr %60, ptr %27, align 8
  br label %84

61:                                               ; preds = %55
  %62 = load ptr, ptr %13, align 8
  %63 = load ptr, ptr %62, align 8
  %64 = getelementptr inbounds %struct.JNINativeInterface_, ptr %63, i32 0, i32 222
  %65 = load ptr, ptr %64, align 8
  %66 = load ptr, ptr %13, align 8
  %67 = load ptr, ptr %21, align 8
  %68 = call ptr %65(ptr noundef %66, ptr noundef %67, ptr noundef null)
  store ptr %68, ptr %27, align 8
  %69 = load ptr, ptr %27, align 8
  %70 = icmp eq ptr %69, null
  br i1 %70, label %71, label %83

71:                                               ; preds = %61
  %72 = load i64, ptr %16, align 8
  %73 = icmp eq i64 %72, 0
  br i1 %73, label %74, label %82

74:                                               ; preds = %71
  %75 = load ptr, ptr %13, align 8
  %76 = load ptr, ptr %75, align 8
  %77 = getelementptr inbounds %struct.JNINativeInterface_, ptr %76, i32 0, i32 223
  %78 = load ptr, ptr %77, align 8
  %79 = load ptr, ptr %13, align 8
  %80 = load ptr, ptr %17, align 8
  %81 = load ptr, ptr %26, align 8
  call void %78(ptr noundef %79, ptr noundef %80, ptr noundef %81, i32 noundef 2)
  br label %82

82:                                               ; preds = %74, %71
  store i32 0, ptr %12, align 4
  br label %129

83:                                               ; preds = %61
  br label %84

84:                                               ; preds = %83, %58
  %85 = load i32, ptr %23, align 4
  %86 = sext i32 %85 to i64
  store i64 %86, ptr %28, align 8
  %87 = load ptr, ptr %29, align 8
  %88 = getelementptr inbounds %struct.CK_FUNCTION_LIST, ptr %87, i32 0, i32 31
  %89 = load ptr, ptr %88, align 8
  %90 = load i64, ptr %24, align 8
  %91 = load ptr, ptr %26, align 8
  %92 = load i32, ptr %18, align 4
  %93 = sext i32 %92 to i64
  %94 = getelementptr inbounds i8, ptr %91, i64 %93
  %95 = load i32, ptr %19, align 4
  %96 = sext i32 %95 to i64
  %97 = load ptr, ptr %27, align 8
  %98 = load i32, ptr %22, align 4
  %99 = sext i32 %98 to i64
  %100 = getelementptr inbounds i8, ptr %97, i64 %99
  %101 = call i64 %89(i64 noundef %90, ptr noundef %94, i64 noundef %96, ptr noundef %100, ptr noundef %28)
  store i64 %101, ptr %25, align 8
  %102 = load i64, ptr %16, align 8
  %103 = icmp eq i64 %102, 0
  br i1 %103, label %104, label %112

104:                                              ; preds = %84
  %105 = load ptr, ptr %13, align 8
  %106 = load ptr, ptr %105, align 8
  %107 = getelementptr inbounds %struct.JNINativeInterface_, ptr %106, i32 0, i32 223
  %108 = load ptr, ptr %107, align 8
  %109 = load ptr, ptr %13, align 8
  %110 = load ptr, ptr %17, align 8
  %111 = load ptr, ptr %26, align 8
  call void %108(ptr noundef %109, ptr noundef %110, ptr noundef %111, i32 noundef 2)
  br label %112

112:                                              ; preds = %104, %84
  %113 = load i64, ptr %20, align 8
  %114 = icmp eq i64 %113, 0
  br i1 %114, label %115, label %123

115:                                              ; preds = %112
  %116 = load ptr, ptr %13, align 8
  %117 = load ptr, ptr %116, align 8
  %118 = getelementptr inbounds %struct.JNINativeInterface_, ptr %117, i32 0, i32 223
  %119 = load ptr, ptr %118, align 8
  %120 = load ptr, ptr %13, align 8
  %121 = load ptr, ptr %21, align 8
  %122 = load ptr, ptr %27, align 8
  call void %119(ptr noundef %120, ptr noundef %121, ptr noundef %122, i32 noundef 0)
  br label %123

123:                                              ; preds = %115, %112
  %124 = load ptr, ptr %13, align 8
  %125 = load i64, ptr %25, align 8
  %126 = call i64 @ckAssertReturnValueOK(ptr noundef %124, i64 noundef %125)
  %127 = load i64, ptr %28, align 8
  %128 = trunc i64 %127 to i32
  store i32 %128, ptr %12, align 4
  br label %129

129:                                              ; preds = %123, %82, %53, %35
  %130 = load i32, ptr %12, align 4
  ret i32 %130
}